target datalayout = "e-m:e-p270:32:32-p271:32:32-p272:64:64-i64:64-i128:128-f80:128-n8:16:32:64-S128"
target triple = "x86_64-unknown-linux-gnu"

%"class.std::vector.5" = type { %"struct.std::_Vector_base.6" }
%"struct.std::_Vector_base.6" = type { %"struct.std::_Vector_base<Assimp::XFile::Material, std::allocator<Assimp::XFile::Material>>::_Vector_impl" }
%"struct.std::_Vector_base<Assimp::XFile::Material, std::allocator<Assimp::XFile::Material>>::_Vector_impl" = type { %"struct.std::_Vector_base<Assimp::XFile::Material, std::allocator<Assimp::XFile::Material>>::_Vector_impl_data" }
%"struct.std::_Vector_base<Assimp::XFile::Material, std::allocator<Assimp::XFile::Material>>::_Vector_impl_data" = type { ptr, ptr, ptr }
%"class.std::__cxx11::basic_string" = type { %"struct.std::__cxx11::basic_string<char>::_Alloc_hider", i64, %union.anon.15 }
%"struct.std::__cxx11::basic_string<char>::_Alloc_hider" = type { ptr }
%union.anon.15 = type { i64, [8 x i8] }
%"struct.Assimp::XFile::Mesh" = type { %"class.std::__cxx11::basic_string", %"class.std::vector.16", %"class.std::vector.21", %"class.std::vector.16", %"class.std::vector.21", i32, [8 x %"class.std::vector.26"], i32, [8 x %"class.std::vector.31"], %"class.std::vector.36", %"class.std::vector.5", %"class.std::vector.41" }
%"class.std::vector.16" = type { %"struct.std::_Vector_base.17" }
%"struct.std::_Vector_base.17" = type { %"struct.std::_Vector_base<aiVector3t<float>, std::allocator<aiVector3t<float>>>::_Vector_impl" }
%"struct.std::_Vector_base<aiVector3t<float>, std::allocator<aiVector3t<float>>>::_Vector_impl" = type { %"struct.std::_Vector_base<aiVector3t<float>, std::allocator<aiVector3t<float>>>::_Vector_impl_data" }
%"struct.std::_Vector_base<aiVector3t<float>, std::allocator<aiVector3t<float>>>::_Vector_impl_data" = type { ptr, ptr, ptr }
%"class.std::vector.21" = type { %"struct.std::_Vector_base.22" }
%"struct.std::_Vector_base.22" = type { %"struct.std::_Vector_base<Assimp::XFile::Face, std::allocator<Assimp::XFile::Face>>::_Vector_impl" }
%"struct.std::_Vector_base<Assimp::XFile::Face, std::allocator<Assimp::XFile::Face>>::_Vector_impl" = type { %"struct.std::_Vector_base<Assimp::XFile::Face, std::allocator<Assimp::XFile::Face>>::_Vector_impl_data" }
%"struct.std::_Vector_base<Assimp::XFile::Face, std::allocator<Assimp::XFile::Face>>::_Vector_impl_data" = type { ptr, ptr, ptr }
%"class.std::vector.26" = type { %"struct.std::_Vector_base.27" }
%"struct.std::_Vector_base.27" = type { %"struct.std::_Vector_base<aiVector2t<float>, std::allocator<aiVector2t<float>>>::_Vector_impl" }
%"struct.std::_Vector_base<aiVector2t<float>, std::allocator<aiVector2t<float>>>::_Vector_impl" = type { %"struct.std::_Vector_base<aiVector2t<float>, std::allocator<aiVector2t<float>>>::_Vector_impl_data" }
%"struct.std::_Vector_base<aiVector2t<float>, std::allocator<aiVector2t<float>>>::_Vector_impl_data" = type { ptr, ptr, ptr }
%"class.std::vector.31" = type { %"struct.std::_Vector_base.32" }
%"struct.std::_Vector_base.32" = type { %"struct.std::_Vector_base<aiColor4t<float>, std::allocator<aiColor4t<float>>>::_Vector_impl" }
%"struct.std::_Vector_base<aiColor4t<float>, std::allocator<aiColor4t<float>>>::_Vector_impl" = type { %"struct.std::_Vector_base<aiColor4t<float>, std::allocator<aiColor4t<float>>>::_Vector_impl_data" }
%"struct.std::_Vector_base<aiColor4t<float>, std::allocator<aiColor4t<float>>>::_Vector_impl_data" = type { ptr, ptr, ptr }
%"class.std::vector.36" = type { %"struct.std::_Vector_base.37" }
%"struct.std::_Vector_base.37" = type { %"struct.std::_Vector_base<unsigned int, std::allocator<unsigned int>>::_Vector_impl" }
%"struct.std::_Vector_base<unsigned int, std::allocator<unsigned int>>::_Vector_impl" = type { %"struct.std::_Vector_base<unsigned int, std::allocator<unsigned int>>::_Vector_impl_data" }
%"struct.std::_Vector_base<unsigned int, std::allocator<unsigned int>>::_Vector_impl_data" = type { ptr, ptr, ptr }
%"class.std::vector.41" = type { %"struct.std::_Vector_base.42" }
%"struct.std::_Vector_base.42" = type { %"struct.std::_Vector_base<Assimp::XFile::Bone, std::allocator<Assimp::XFile::Bone>>::_Vector_impl" }
%"struct.std::_Vector_base<Assimp::XFile::Bone, std::allocator<Assimp::XFile::Bone>>::_Vector_impl" = type { %"struct.std::_Vector_base<Assimp::XFile::Bone, std::allocator<Assimp::XFile::Bone>>::_Vector_impl_data" }
%"struct.std::_Vector_base<Assimp::XFile::Bone, std::allocator<Assimp::XFile::Bone>>::_Vector_impl_data" = type { ptr, ptr, ptr }
%class.aiVector2t = type { float, float }

@.str.20 = private unnamed_addr constant [2 x i8] c"}\00", align 1
@.str.38 = private unnamed_addr constant [37 x i8] c"Too many sets of texture coordinates\00", align 1
@.str.39 = private unnamed_addr constant [48 x i8] c"Texture coord count does not match vertex count\00", align 1
@.str.71 = private unnamed_addr constant [24 x i8] c"Closing brace expected.\00", align 1

; Function Attrs: mustprogress nounwind uwtable
define linkonce_odr noundef zeroext i1 @_ZSteqIcSt11char_traitsIcESaIcEEbRKNSt7__cxx1112basic_stringIT_T0_T1_EEPKS5_(ptr noundef nonnull align 8 dereferenceable(32) %__lhs, ptr noundef %__rhs) #0 comdat {
entry:
  %__lhs.addr = alloca ptr, align 8
  %__rhs.addr = alloca ptr, align 8
  store ptr %__lhs, ptr %__lhs.addr, align 8
  store ptr %__rhs, ptr %__rhs.addr, align 8
  %0 = load ptr, ptr %__lhs.addr, align 8
  %1 = load ptr, ptr %__rhs.addr, align 8
  %call = call noundef i32 @_ZNKSt7__cxx1112basic_stringIcSt11char_traitsIcESaIcEE7compareEPKc(ptr noundef nonnull align 8 dereferenceable(32) %0, ptr noundef %1) #16
  %cmp = icmp eq i32 %call, 0
  ret i1 %cmp
}

; Function Attrs: mustprogress nounwind uwtable
define linkonce_odr noundef zeroext i1 @_ZStneIcSt11char_traitsIcESaIcEEbRKNSt7__cxx1112basic_stringIT_T0_T1_EEPKS5_(ptr noundef nonnull align 8 dereferenceable(32) %__lhs, ptr noundef %__rhs) #0 comdat {
entry:
  %__lhs.addr = alloca ptr, align 8
  %__rhs.addr = alloca ptr, align 8
  store ptr %__lhs, ptr %__lhs.addr, align 8
  store ptr %__rhs, ptr %__rhs.addr, align 8
  %0 = load ptr, ptr %__lhs.addr, align 8
  %1 = load ptr, ptr %__rhs.addr, align 8
  %call = call noundef zeroext i1 @_ZSteqIcSt11char_traitsIcESaIcEEbRKNSt7__cxx1112basic_stringIT_T0_T1_EEPKS5_(ptr noundef nonnull align 8 dereferenceable(32) %0, ptr noundef %1)
  %lnot = xor i1 %call, true
  ret i1 %lnot
}

; Function Attrs: mustprogress nounwind uwtable
define linkonce_odr hidden void @_ZN10aiVector2tIfEC2Ev(ptr noundef nonnull align 4 dereferenceable(8) %this) unnamed_addr #0 comdat align 2 {
entry:
  %this.addr = alloca ptr, align 8
  store ptr %this, ptr %this.addr, align 8
  %this1 = load ptr, ptr %this.addr, align 8
  %x = getelementptr inbounds %class.aiVector2t, ptr %this1, i32 0, i32 0
  store float 0.000000e+00, ptr %x, align 4
  %y = getelementptr inbounds %class.aiVector2t, ptr %this1, i32 0, i32 1
  store float 0.000000e+00, ptr %y, align 4
  ret void
}

; Function Attrs: mustprogress uwtable
define hidden void @_ZN6Assimp11XFileParser20CheckForClosingBraceEv(ptr noundef nonnull align 8 dereferenceable(56) %this) #2 align 2 personality ptr @__gxx_personality_v0 {
entry:
  %this.addr = alloca ptr, align 8
  %ref.tmp = alloca %"class.std::__cxx11::basic_string", align 8
  %exn.slot = alloca ptr, align 8
  %ehselector.slot = alloca i32, align 4
  store ptr %this, ptr %this.addr, align 8
  %this1 = load ptr, ptr %this.addr, align 8
  call void @_ZN6Assimp11XFileParser12GetNextTokenB5cxx11Ev(ptr sret(%"class.std::__cxx11::basic_string") align 8 %ref.tmp, ptr noundef nonnull align 8 dereferenceable(56) %this1)
  %call = invoke noundef zeroext i1 @_ZStneIcSt11char_traitsIcESaIcEEbRKNSt7__cxx1112basic_stringIT_T0_T1_EEPKS5_(ptr noundef nonnull align 8 dereferenceable(32) %ref.tmp, ptr noundef @.str.20)
          to label %invoke.cont unwind label %lpad

invoke.cont:                                      ; preds = %entry
  call void @_ZNSt7__cxx1112basic_stringIcSt11char_traitsIcESaIcEED1Ev(ptr noundef nonnull align 8 dereferenceable(32) %ref.tmp) #16
  br i1 %call, label %if.then, label %if.end

if.then:                                          ; preds = %invoke.cont
  call void @_ZN6Assimp11XFileParser14ThrowExceptionIJRA24_KcEEEvDpOT_(ptr noundef nonnull align 8 dereferenceable(56) %this1, ptr noundef nonnull align 1 dereferenceable(24) @.str.71) #18
  unreachable

lpad:                                             ; preds = %entry
  %0 = landingpad { ptr, i32 }
          cleanup
  %1 = extractvalue { ptr, i32 } %0, 0
  store ptr %1, ptr %exn.slot, align 8
  %2 = extractvalue { ptr, i32 } %0, 1
  store i32 %2, ptr %ehselector.slot, align 4
  call void @_ZNSt7__cxx1112basic_stringIcSt11char_traitsIcESaIcEED1Ev(ptr noundef nonnull align 8 dereferenceable(32) %ref.tmp) #16
  br label %eh.resume

if.end:                                           ; preds = %invoke.cont
  ret void

eh.resume:                                        ; preds = %lpad
  %exn = load ptr, ptr %exn.slot, align 8
  %sel = load i32, ptr %ehselector.slot, align 4
  %lpad.val = insertvalue { ptr, i32 } poison, ptr %exn, 0
  %lpad.val2 = insertvalue { ptr, i32 } %lpad.val, i32 %sel, 1
  resume { ptr, i32 } %lpad.val2
}

; Function Attrs: mustprogress nounwind uwtable
define linkonce_odr hidden noundef nonnull align 4 dereferenceable(8) ptr @_ZNSt6vectorI10aiVector2tIfESaIS1_EEixEm(ptr noundef nonnull align 8 dereferenceable(24) %this, i64 noundef %__n) #0 comdat align 2 {
entry:
  %this.addr = alloca ptr, align 8
  %__n.addr = alloca i64, align 8
  store ptr %this, ptr %this.addr, align 8
  store i64 %__n, ptr %__n.addr, align 8
  %this1 = load ptr, ptr %this.addr, align 8
  %_M_impl = getelementptr inbounds %"struct.std::_Vector_base.27", ptr %this1, i32 0, i32 0
  %_M_start = getelementptr inbounds %"struct.std::_Vector_base<aiVector2t<float>, std::allocator<aiVector2t<float>>>::_Vector_impl_data", ptr %_M_impl, i32 0, i32 0
  %0 = load ptr, ptr %_M_start, align 8
  %1 = load i64, ptr %__n.addr, align 8
  %add.ptr = getelementptr inbounds %class.aiVector2t, ptr %0, i64 %1
  ret ptr %add.ptr
}

; Function Attrs: mustprogress uwtable
define hidden <2 x float> @_ZN6Assimp11XFileParser11ReadVector2Ev(ptr noundef nonnull align 8 dereferenceable(56) %this) #9 align 2 {
entry:
  %retval = alloca %class.aiVector2t, align 4
  %this.addr = alloca ptr, align 8
  store ptr %this, ptr %this.addr, align 8
  %this1 = load ptr, ptr %this.addr, align 8
  call void @_ZN10aiVector2tIfEC2Ev(ptr noundef nonnull align 4 dereferenceable(8) %retval)
  %call = call noundef float @_ZN6Assimp11XFileParser9ReadFloatEv(ptr noundef nonnull align 8 dereferenceable(56) %this1)
  %x = getelementptr inbounds %class.aiVector2t, ptr %retval, i32 0, i32 0
  store float %call, ptr %x, align 4
  %call2 = call noundef float @_ZN6Assimp11XFileParser9ReadFloatEv(ptr noundef nonnull align 8 dereferenceable(56) %this1)
  %y = getelementptr inbounds %class.aiVector2t, ptr %retval, i32 0, i32 1
  store float %call2, ptr %y, align 4
  call void @_ZN6Assimp11XFileParser16TestForSeparatorEv(ptr noundef nonnull align 8 dereferenceable(56) %this1)
  %0 = load <2 x float>, ptr %retval, align 4
  ret <2 x float> %0
}

; Function Attrs: mustprogress nounwind uwtable
define linkonce_odr hidden noundef i64 @_ZNKSt6vectorI10aiVector3tIfESaIS1_EE4sizeEv(ptr noundef nonnull align 8 dereferenceable(24) %this) #0 comdat align 2 {
entry:
  %this.addr = alloca ptr, align 8
  store ptr %this, ptr %this.addr, align 8
  %this1 = load ptr, ptr %this.addr, align 8
  %_M_impl = getelementptr inbounds %"struct.std::_Vector_base.17", ptr %this1, i32 0, i32 0
  %_M_finish = getelementptr inbounds %"struct.std::_Vector_base<aiVector3t<float>, std::allocator<aiVector3t<float>>>::_Vector_impl_data", ptr %_M_impl, i32 0, i32 1
  %0 = load ptr, ptr %_M_finish, align 8
  %_M_impl2 = getelementptr inbounds %"struct.std::_Vector_base.17", ptr %this1, i32 0, i32 0
  %_M_start = getelementptr inbounds %"struct.std::_Vector_base<aiVector3t<float>, std::allocator<aiVector3t<float>>>::_Vector_impl_data", ptr %_M_impl2, i32 0, i32 0
  %1 = load ptr, ptr %_M_start, align 8
  %sub.ptr.lhs.cast = ptrtoint ptr %0 to i64
  %sub.ptr.rhs.cast = ptrtoint ptr %1 to i64
  %sub.ptr.sub = sub i64 %sub.ptr.lhs.cast, %sub.ptr.rhs.cast
  %sub.ptr.div = sdiv exact i64 %sub.ptr.sub, 12
  ret i64 %sub.ptr.div
}

; Function Attrs: mustprogress uwtable
define hidden void @_ZN6Assimp11XFileParser32ParseDataObjectMeshTextureCoordsEPNS_5XFile4MeshE(ptr noundef nonnull align 8 dereferenceable(56) %this, ptr noundef %pMesh) #9 align 2 {
entry:
  %this.addr = alloca ptr, align 8
  %pMesh.addr = alloca ptr, align 8
  %coords = alloca ptr, align 8
  %numCoords = alloca i32, align 4
  %a = alloca i32, align 4
  %ref.tmp = alloca %class.aiVector2t, align 4
  store ptr %this, ptr %this.addr, align 8
  store ptr %pMesh, ptr %pMesh.addr, align 8
  %this1 = load ptr, ptr %this.addr, align 8
  call void @_ZN6Assimp11XFileParser20readHeadOfDataObjectEPNSt7__cxx1112basic_stringIcSt11char_traitsIcESaIcEEE(ptr noundef nonnull align 8 dereferenceable(56) %this1, ptr noundef null)
  %0 = load ptr, ptr %pMesh.addr, align 8
  %mNumTextures = getelementptr inbounds %"struct.Assimp::XFile::Mesh", ptr %0, i32 0, i32 5
  %1 = load i32, ptr %mNumTextures, align 8
  %add = add i32 %1, 1
  %cmp = icmp ugt i32 %add, 8
  br i1 %cmp, label %if.then, label %if.end

if.then:                                          ; preds = %entry
  call void @_ZN6Assimp11XFileParser14ThrowExceptionIJRA37_KcEEEvDpOT_(ptr noundef nonnull align 8 dereferenceable(56) %this1, ptr noundef nonnull align 1 dereferenceable(37) @.str.38) #18
  unreachable

if.end:                                           ; preds = %entry
  %2 = load ptr, ptr %pMesh.addr, align 8
  %mTexCoords = getelementptr inbounds %"struct.Assimp::XFile::Mesh", ptr %2, i32 0, i32 6
  %3 = load ptr, ptr %pMesh.addr, align 8
  %mNumTextures2 = getelementptr inbounds %"struct.Assimp::XFile::Mesh", ptr %3, i32 0, i32 5
  %4 = load i32, ptr %mNumTextures2, align 8
  %inc = add i32 %4, 1
  store i32 %inc, ptr %mNumTextures2, align 8
  %idxprom = zext i32 %4 to i64
  %arrayidx = getelementptr inbounds [8 x %"class.std::vector.26"], ptr %mTexCoords, i64 0, i64 %idxprom
  store ptr %arrayidx, ptr %coords, align 8
  %call = call noundef i32 @_ZN6Assimp11XFileParser7ReadIntEv(ptr noundef nonnull align 8 dereferenceable(56) %this1)
  store i32 %call, ptr %numCoords, align 4
  %5 = load i32, ptr %numCoords, align 4
  %conv = zext i32 %5 to i64
  %6 = load ptr, ptr %pMesh.addr, align 8
  %mPositions = getelementptr inbounds %"struct.Assimp::XFile::Mesh", ptr %6, i32 0, i32 1
  %call3 = call noundef i64 @_ZNKSt6vectorI10aiVector3tIfESaIS1_EE4sizeEv(ptr noundef nonnull align 8 dereferenceable(24) %mPositions) #16
  %cmp4 = icmp ne i64 %conv, %call3
  br i1 %cmp4, label %if.then5, label %if.end6

if.then5:                                         ; preds = %if.end
  call void @_ZN6Assimp11XFileParser14ThrowExceptionIJRA48_KcEEEvDpOT_(ptr noundef nonnull align 8 dereferenceable(56) %this1, ptr noundef nonnull align 1 dereferenceable(48) @.str.39) #18
  unreachable

if.end6:                                          ; preds = %if.end
  %7 = load ptr, ptr %coords, align 8
  %8 = load i32, ptr %numCoords, align 4
  %conv7 = zext i32 %8 to i64
  call void @_ZNSt6vectorI10aiVector2tIfESaIS1_EE6resizeEm(ptr noundef nonnull align 8 dereferenceable(24) %7, i64 noundef %conv7)
  store i32 0, ptr %a, align 4
  br label %for.cond

for.cond:                                         ; preds = %for.inc, %if.end6
  %9 = load i32, ptr %a, align 4
  %10 = load i32, ptr %numCoords, align 4
  %cmp8 = icmp ult i32 %9, %10
  br i1 %cmp8, label %for.body, label %for.end

for.body:                                         ; preds = %for.cond
  %call9 = call <2 x float> @_ZN6Assimp11XFileParser11ReadVector2Ev(ptr noundef nonnull align 8 dereferenceable(56) %this1)
  store <2 x float> %call9, ptr %ref.tmp, align 4
  %11 = load ptr, ptr %coords, align 8
  %12 = load i32, ptr %a, align 4
  %conv10 = zext i32 %12 to i64
  %call11 = call noundef nonnull align 4 dereferenceable(8) ptr @_ZNSt6vectorI10aiVector2tIfESaIS1_EEixEm(ptr noundef nonnull align 8 dereferenceable(24) %11, i64 noundef %conv10) #16
  call void @llvm.memcpy.p0.p0.i64(ptr align 4 %call11, ptr align 4 %ref.tmp, i64 8, i1 false)
  br label %for.inc

for.inc:                                          ; preds = %for.body
  %13 = load i32, ptr %a, align 4
  %inc12 = add i32 %13, 1
  store i32 %inc12, ptr %a, align 4
  br label %for.cond, !llvm.loop !28

for.end:                                          ; preds = %for.cond
  call void @_ZN6Assimp11XFileParser20CheckForClosingBraceEv(ptr noundef nonnull align 8 dereferenceable(56) %this1)
  ret void
}