; Function Attrs: mustprogress uwtable
define hidden void @_ZN6Assimp11XFileParser32ParseDataObjectMeshTextureCoordsEPNS_5XFile4MeshE(ptr noundef nonnull align 8 dereferenceable(56) %this, ptr noundef %pMesh) local_unnamed_addr #9 align 2 personality ptr @__gxx_personality_v0 {
entry:
  %ref.tmp.i = alloca %"class.std::__cxx11::basic_string", align 8
  tail call void @_ZN6Assimp11XFileParser20readHeadOfDataObjectEPNSt7__cxx1112basic_stringIcSt11char_traitsIcESaIcEEE(ptr noundef nonnull align 8 dereferenceable(56) %this, ptr noundef null)
  %mNumTextures = getelementptr inbounds i8, ptr %pMesh, i64 128
  %0 = load i32, ptr %mNumTextures, align 8
  %add = add i32 %0, 1
  %cmp = icmp ugt i32 %add, 8
  br i1 %cmp, label %if.then, label %if.end

if.then:                                          ; preds = %entry
  tail call void @_ZN6Assimp11XFileParser14ThrowExceptionIJRA37_KcEEEvDpOT_(ptr noundef nonnull align 8 dereferenceable(56) %this, ptr noundef nonnull align 1 dereferenceable(37) @.str.38) #23
  unreachable

if.end:                                           ; preds = %entry
  %mTexCoords = getelementptr inbounds i8, ptr %pMesh, i64 136
  store i32 %add, ptr %mNumTextures, align 8
  %idxprom = zext i32 %0 to i64
  %arrayidx = getelementptr inbounds [8 x %"class.std::vector.26"], ptr %mTexCoords, i64 0, i64 %idxprom
  %call = tail call noundef i32 @_ZN6Assimp11XFileParser7ReadIntEv(ptr noundef nonnull align 8 dereferenceable(56) %this)
  %conv = zext i32 %call to i64
  %mPositions = getelementptr inbounds i8, ptr %pMesh, i64 32
  %_M_finish.i = getelementptr inbounds i8, ptr %pMesh, i64 40
  %1 = load ptr, ptr %_M_finish.i, align 8
  %2 = load ptr, ptr %mPositions, align 8
  %sub.ptr.lhs.cast.i = ptrtoint ptr %1 to i64
  %sub.ptr.rhs.cast.i = ptrtoint ptr %2 to i64
  %sub.ptr.sub.i = sub i64 %sub.ptr.lhs.cast.i, %sub.ptr.rhs.cast.i
  %sub.ptr.div.i = sdiv exact i64 %sub.ptr.sub.i, 12
  %cmp4.not = icmp eq i64 %sub.ptr.div.i, %conv
  br i1 %cmp4.not, label %if.end6, label %if.then5

if.then5:                                         ; preds = %if.end
  tail call void @_ZN6Assimp11XFileParser14ThrowExceptionIJRA48_KcEEEvDpOT_(ptr noundef nonnull align 8 dereferenceable(56) %this, ptr noundef nonnull align 1 dereferenceable(48) @.str.39) #23
  unreachable

if.end6:                                          ; preds = %if.end
  tail call void @_ZNSt6vectorI10aiVector2tIfESaIS1_EE6resizeEm(ptr noundef nonnull align 8 dereferenceable(24) %arrayidx, i64 noundef %conv)
  %cmp89.not = icmp eq i32 %call, 0
  br i1 %cmp89.not, label %for.end, label %for.body

for.body:                                         ; preds = %if.end6, %for.body
  %indvars.iv = phi i64 [ %indvars.iv.next, %for.body ], [ 0, %if.end6 ]
  %call.i = tail call noundef float @_ZN6Assimp11XFileParser9ReadFloatEv(ptr noundef nonnull align 8 dereferenceable(56) %this)
  %retval.sroa.0.0.vec.insert.i = insertelement <2 x float> poison, float %call.i, i64 0
  %call2.i = tail call noundef float @_ZN6Assimp11XFileParser9ReadFloatEv(ptr noundef nonnull align 8 dereferenceable(56) %this)
  %retval.sroa.0.4.vec.insert.i = insertelement <2 x float> %retval.sroa.0.0.vec.insert.i, float %call2.i, i64 1
  tail call void @_ZN6Assimp11XFileParser16TestForSeparatorEv(ptr noundef nonnull align 8 dereferenceable(56) %this)
  %3 = load ptr, ptr %arrayidx, align 8
  %add.ptr.i = getelementptr inbounds %class.aiVector2t, ptr %3, i64 %indvars.iv
  store <2 x float> %retval.sroa.0.4.vec.insert.i, ptr %add.ptr.i, align 4
  %indvars.iv.next = add nuw nsw i64 %indvars.iv, 1
  %exitcond.not = icmp eq i64 %indvars.iv.next, %conv
  br i1 %exitcond.not, label %for.end, label %for.body, !llvm.loop !42

for.end:                                          ; preds = %for.body, %if.end6
  call void @llvm.lifetime.start.p0(i64 32, ptr nonnull %ref.tmp.i)
  call void @_ZN6Assimp11XFileParser12GetNextTokenB5cxx11Ev(ptr nonnull sret(%"class.std::__cxx11::basic_string") align 8 %ref.tmp.i, ptr noundef nonnull align 8 dereferenceable(56) %this)
  %call.i.i.i = call noundef i32 @_ZNKSt7__cxx1112basic_stringIcSt11char_traitsIcESaIcEE7compareEPKc(ptr noundef nonnull align 8 dereferenceable(32) %ref.tmp.i, ptr noundef nonnull @.str.20) #21
  %cmp.i.i.not.i = icmp eq i32 %call.i.i.i, 0
  call void @_ZNSt7__cxx1112basic_stringIcSt11char_traitsIcESaIcEED1Ev(ptr noundef nonnull align 8 dereferenceable(32) %ref.tmp.i) #21
  br i1 %cmp.i.i.not.i, label %_ZN6Assimp11XFileParser20CheckForClosingBraceEv.exit, label %if.then.i

if.then.i:                                        ; preds = %for.end
  call void @_ZN6Assimp11XFileParser14ThrowExceptionIJRA24_KcEEEvDpOT_(ptr noundef nonnull align 8 dereferenceable(56) %this, ptr noundef nonnull align 1 dereferenceable(24) @.str.71) #23
  unreachable

_ZN6Assimp11XFileParser20CheckForClosingBraceEv.exit: ; preds = %for.end
  call void @llvm.lifetime.end.p0(i64 32, ptr nonnull %ref.tmp.i)
  ret void
}